target datalayout = "e-m:e-p270:32:32-p271:32:32-p272:64:64-i64:64-i128:128-f80:128-n8:16:32:64-S128"
target triple = "x86_64-pc-linux-gnu"

%struct.FFTextReader = type { i32, ptr, [8 x i8], i32, i32, %struct.FFIOContext }
%struct.FFIOContext = type { %struct.AVIOContext, ptr, i32, i32, i64, i64, i64, i64, i32, i32, i32, i64 }
%struct.AVIOContext = type { ptr, ptr, i32, ptr, ptr, ptr, ptr, ptr, ptr, i64, i32, i32, i32, i32, i32, i64, ptr, ptr, ptr, ptr, i32, i32, ptr, ptr, ptr, i32, ptr, i64, i64 }
%struct.AVProbeData = type { ptr, ptr, i32, ptr }

@.str.2 = private unnamed_addr constant [19 x i8] c"Scenarist_SCC V1.0\00", align 1

; Function Attrs: nounwind uwtable
define internal i32 @scc_probe(ptr noundef %0) #0 {
  %2 = alloca i32, align 4
  %3 = alloca ptr, align 8
  %4 = alloca [18 x i8], align 16
  %5 = alloca %struct.FFTextReader, align 8
  %6 = alloca i32, align 4
  store ptr %0, ptr %3, align 8, !tbaa !4
  call void @llvm.lifetime.start.p0(i64 18, ptr %4) #4
  call void @llvm.lifetime.start.p0(i64 312, ptr %5) #4
  %7 = load ptr, ptr %3, align 8, !tbaa !4
  %8 = getelementptr inbounds nuw %struct.AVProbeData, ptr %7, i32 0, i32 1
  %9 = load ptr, ptr %8, align 8, !tbaa !9
  %10 = load ptr, ptr %3, align 8, !tbaa !4
  %11 = getelementptr inbounds nuw %struct.AVProbeData, ptr %10, i32 0, i32 2
  %12 = load i32, ptr %11, align 8, !tbaa !13
  %13 = sext i32 %12 to i64
  call void @ff_text_init_buf(ptr noundef %5, ptr noundef %9, i64 noundef %13)
  br label %14

14:                                               ; preds = %22, %1
  %15 = call i32 @ff_text_peek_r8(ptr noundef %5)
  %16 = icmp eq i32 %15, 13
  br i1 %16, label %20, label %17

17:                                               ; preds = %14
  %18 = call i32 @ff_text_peek_r8(ptr noundef %5)
  %19 = icmp eq i32 %18, 10
  br label %20

20:                                               ; preds = %17, %14
  %21 = phi i1 [ true, %14 ], [ %19, %17 ]
  br i1 %21, label %22, label %24

22:                                               ; preds = %20
  %23 = call i32 @ff_text_r8(ptr noundef %5)
  br label %14, !llvm.loop !14

24:                                               ; preds = %20
  %25 = getelementptr inbounds [18 x i8], ptr %4, i64 0, i64 0
  call void @ff_text_read(ptr noundef %5, ptr noundef %25, i64 noundef 18)
  %26 = getelementptr inbounds [18 x i8], ptr %4, i64 0, i64 0
  %27 = call i32 @memcmp(ptr noundef %26, ptr noundef @.str.2, i64 noundef 18) #5
  %28 = icmp ne i32 %27, 0
  br i1 %28, label %30, label %29

29:                                               ; preds = %24
  store i32 100, ptr %2, align 4
  store i32 1, ptr %6, align 4
  br label %31

30:                                               ; preds = %24
  store i32 0, ptr %2, align 4
  store i32 1, ptr %6, align 4
  br label %31

31:                                               ; preds = %30, %29
  call void @llvm.lifetime.end.p0(i64 312, ptr %5) #4
  call void @llvm.lifetime.end.p0(i64 18, ptr %4) #4
  %32 = load i32, ptr %2, align 4
  ret i32 %32
}