; Function Attrs: nounwind uwtable
define internal range(i32 0, 101) i32 @scc_probe(ptr noundef readonly captures(none) %0) #0 {
  %2 = alloca [18 x i8], align 16
  %3 = alloca %struct.FFTextReader, align 8
  call void @llvm.lifetime.start.p0(i64 18, ptr nonnull %2) #4
  call void @llvm.lifetime.start.p0(i64 312, ptr nonnull %3) #4
  %4 = getelementptr inbounds nuw i8, ptr %0, i64 8
  %5 = load ptr, ptr %4, align 8, !tbaa !4
  %6 = getelementptr inbounds nuw i8, ptr %0, i64 16
  %7 = load i32, ptr %6, align 8, !tbaa !11
  %8 = sext i32 %7 to i64
  call void @ff_text_init_buf(ptr noundef nonnull %3, ptr noundef %5, i64 noundef %8) #4
  br label %9

9:                                                ; preds = %.critedge, %1
  %10 = call i32 @ff_text_peek_r8(ptr noundef nonnull %3) #4
  %11 = icmp eq i32 %10, 13
  br i1 %11, label %.critedge, label %12

12:                                               ; preds = %9
  %13 = call i32 @ff_text_peek_r8(ptr noundef nonnull %3) #4
  %14 = icmp eq i32 %13, 10
  br i1 %14, label %.critedge, label %16

.critedge:                                        ; preds = %9, %12
  %15 = call i32 @ff_text_r8(ptr noundef nonnull %3) #4
  br label %9, !llvm.loop !12

16:                                               ; preds = %12
  call void @ff_text_read(ptr noundef nonnull %3, ptr noundef nonnull %2, i64 noundef 18) #4
  %bcmp = call i32 @bcmp(ptr noundef nonnull dereferenceable(18) %2, ptr noundef nonnull dereferenceable(18) @.str.2, i64 18)
  %.not = icmp eq i32 %bcmp, 0
  %. = select i1 %.not, i32 100, i32 0
  call void @llvm.lifetime.end.p0(i64 312, ptr nonnull %3) #4
  call void @llvm.lifetime.end.p0(i64 18, ptr nonnull %2) #4
  ret i32 %.
}